; ModuleID = 'source-C-CXX/28/209.c'
source_filename = "source-C-CXX/28/209.c"
target datalayout = "e-m:e-p270:32:32-p271:32:32-p272:64:64-i64:64-f80:128-n8:16:32:64-S128"
target triple = "x86_64-pc-linux-gnu"

@.str = private unnamed_addr constant [3 x i8] c"%d\00", align 1
@.str.1 = private unnamed_addr constant [7 x i8] c"%.3lf\0A\00", align 1

; Function Attrs: nofree nounwind sspstrong uwtable
define dso_local i32 @main() local_unnamed_addr #0 {
  %1 = alloca i32, align 4
  %2 = alloca [1000 x i32], align 16
  %3 = alloca [1000 x i32], align 16
  %4 = alloca i32, align 4
  %5 = bitcast i32* %1 to i8*
  call void @llvm.lifetime.start.p0i8(i64 4, i8* nonnull %5) #3
  %6 = bitcast [1000 x i32]* %2 to i8*
  call void @llvm.lifetime.start.p0i8(i64 4000, i8* nonnull %6) #3
  %7 = bitcast [1000 x i32]* %3 to i8*
  call void @llvm.lifetime.start.p0i8(i64 4000, i8* nonnull %7) #3
  %8 = bitcast i32* %4 to i8*
  call void @llvm.lifetime.start.p0i8(i64 4, i8* nonnull %8) #3
  %9 = call i32 (i8*, ...) @__isoc99_scanf(i8* getelementptr inbounds ([3 x i8], [3 x i8]* @.str, i64 0, i64 0), i32* nonnull %1)
  %10 = getelementptr inbounds [1000 x i32], [1000 x i32]* %2, i64 0, i64 0
  %11 = getelementptr inbounds [1000 x i32], [1000 x i32]* %2, i64 0, i64 1
  %12 = getelementptr inbounds [1000 x i32], [1000 x i32]* %3, i64 0, i64 0
  %13 = getelementptr inbounds [1000 x i32], [1000 x i32]* %3, i64 0, i64 1
  %14 = load i32, i32* %1, align 4, !tbaa !5
  %15 = icmp sgt i32 %14, 0
  br i1 %15, label %16, label %57

16:                                               ; preds = %0, %51
  %17 = phi i32 [ %54, %51 ], [ 0, %0 ]
  %18 = call i32 (i8*, ...) @__isoc99_scanf(i8* getelementptr inbounds ([3 x i8], [3 x i8]* @.str, i64 0, i64 0), i32* nonnull %4)
  %19 = load i32, i32* %4, align 4, !tbaa !5
  %20 = icmp sgt i32 %19, 0
  br i1 %20, label %21, label %51

21:                                               ; preds = %16
  %22 = zext i32 %19 to i64
  %23 = icmp eq i32 %19, 1
  br i1 %23, label %51, label %24

24:                                               ; preds = %21
  store i32 2, i32* %10, align 16, !tbaa !5
  %25 = icmp eq i32 %19, 2
  br i1 %25, label %51, label %26

26:                                               ; preds = %24, %26
  %27 = phi i64 [ %49, %26 ], [ 2, %24 ]
  %28 = phi double [ %48, %26 ], [ 3.500000e+00, %24 ]
  store i32 2, i32* %10, align 16, !tbaa !5
  store i32 3, i32* %11, align 4, !tbaa !5
  store i32 1, i32* %12, align 16, !tbaa !5
  store i32 2, i32* %13, align 4, !tbaa !5
  %29 = add nuw i64 %27, 4294967295
  %30 = and i64 %29, 4294967295
  %31 = getelementptr inbounds [1000 x i32], [1000 x i32]* %2, i64 0, i64 %30
  %32 = load i32, i32* %31, align 4, !tbaa !5
  %33 = add nuw i64 %27, 4294967294
  %34 = and i64 %33, 4294967295
  %35 = getelementptr inbounds [1000 x i32], [1000 x i32]* %2, i64 0, i64 %34
  %36 = load i32, i32* %35, align 4, !tbaa !5
  %37 = add nsw i32 %36, %32
  %38 = getelementptr inbounds [1000 x i32], [1000 x i32]* %2, i64 0, i64 %27
  store i32 %37, i32* %38, align 4, !tbaa !5
  %39 = getelementptr inbounds [1000 x i32], [1000 x i32]* %3, i64 0, i64 %30
  %40 = load i32, i32* %39, align 4, !tbaa !5
  %41 = getelementptr inbounds [1000 x i32], [1000 x i32]* %3, i64 0, i64 %34
  %42 = load i32, i32* %41, align 4, !tbaa !5
  %43 = add nsw i32 %42, %40
  %44 = getelementptr inbounds [1000 x i32], [1000 x i32]* %3, i64 0, i64 %27
  store i32 %43, i32* %44, align 4, !tbaa !5
  %45 = sitofp i32 %37 to double
  %46 = sitofp i32 %43 to double
  %47 = fdiv double %45, %46
  %48 = fadd double %28, %47
  %49 = add nuw nsw i64 %27, 1
  %50 = icmp eq i64 %49, %22
  br i1 %50, label %51, label %26, !llvm.loop !9

51:                                               ; preds = %26, %21, %24, %16
  %52 = phi double [ 0.000000e+00, %16 ], [ 2.000000e+00, %21 ], [ 3.500000e+00, %24 ], [ %48, %26 ]
  %53 = call i32 (i8*, ...) @printf(i8* nonnull dereferenceable(1) getelementptr inbounds ([7 x i8], [7 x i8]* @.str.1, i64 0, i64 0), double %52)
  %54 = add nuw nsw i32 %17, 1
  %55 = load i32, i32* %1, align 4, !tbaa !5
  %56 = icmp slt i32 %54, %55
  br i1 %56, label %16, label %57, !llvm.loop !12

57:                                               ; preds = %51, %0
  call void @llvm.lifetime.end.p0i8(i64 4, i8* nonnull %8) #3
  call void @llvm.lifetime.end.p0i8(i64 4000, i8* nonnull %7) #3
  call void @llvm.lifetime.end.p0i8(i64 4000, i8* nonnull %6) #3
  call void @llvm.lifetime.end.p0i8(i64 4, i8* nonnull %5) #3
  ret i32 0
}

; Function Attrs: argmemonly mustprogress nofree nosync nounwind willreturn
declare void @llvm.lifetime.start.p0i8(i64 immarg, i8* nocapture) #1

; Function Attrs: nofree nounwind
declare noundef i32 @__isoc99_scanf(i8* nocapture noundef readonly, ...) local_unnamed_addr #2

; Function Attrs: nofree nounwind
declare noundef i32 @printf(i8* nocapture noundef readonly, ...) local_unnamed_addr #2

; Function Attrs: argmemonly mustprogress nofree nosync nounwind willreturn
declare void @llvm.lifetime.end.p0i8(i64 immarg, i8* nocapture) #1


!llvm.module.flags = !{!0, !1, !2, !3}
!llvm.ident = !{!4}

!0 = !{i32 1, !"wchar_size", i32 4}
!1 = !{i32 7, !"PIC Level", i32 2}
!2 = !{i32 7, !"PIE Level", i32 2}
!3 = !{i32 7, !"uwtable", i32 1}
!4 = !{!"clang version 13.0.0"}
!5 = !{!6, !6, i64 0}
!6 = !{!"int", !7, i64 0}
!7 = !{!"omnipotent char", !8, i64 0}
!8 = !{!"Simple C/C++ TBAA"}
!9 = distinct !{!9, !10, !11}
!10 = !{!"llvm.loop.mustprogress"}
!11 = !{!"llvm.loop.peeled.count", i32 2}
!12 = distinct !{!12, !10}
